; Function Attrs: cold nounwind optsize uwtable
define internal noundef i32 @rgbtest_init(ptr noundef %0) #0 {
  %2 = getelementptr inbounds nuw i8, ptr %0, i64 72
  %3 = load ptr, ptr %2, align 8, !tbaa !4
  %4 = getelementptr inbounds nuw i8, ptr %3, i64 72
  store i32 1, ptr %4, align 8, !tbaa !28
  %5 = getelementptr inbounds nuw i8, ptr %3, i64 316
  %6 = load i32, ptr %5, align 4, !tbaa !55
  %.not = icmp eq i32 %6, 0
  %7 = select i1 %.not, ptr @rgbtest_fill_picture, ptr @rgbtest_fill_picture_complement
  %8 = getelementptr inbounds nuw i8, ptr %3, i64 88
  store ptr %7, ptr %8, align 8, !tbaa !20
  %9 = tail call i32 @init(ptr noundef %0) #19
  ret i32 0
}